; Function Attrs: nounwind sspstrong uwtable
define internal i64 @lsi_ram_read(ptr noundef readonly captures(none) %opaque, i64 noundef %addr, i32 noundef %size) #0 {
entry:
  %script_ram = getelementptr inbounds nuw i8, ptr %opaque, i64 3948
  %add.ptr = getelementptr i8, ptr %script_ram, i64 %addr
  switch i32 %size, label %do.body.i [
    i32 1, label %sw.bb.i
    i32 2, label %sw.bb1.i
    i32 4, label %sw.bb4.i
    i32 8, label %sw.bb7.i
  ]

sw.bb.i:                                          ; preds = %entry
  %ptr.val.i = load i8, ptr %add.ptr, align 1
  %conv.i = zext i8 %ptr.val.i to i64
  br label %ldn_le_p.exit

sw.bb1.i:                                         ; preds = %entry
  %ptr.val4.i = load i16, ptr %add.ptr, align 1
  %conv3.i = zext i16 %ptr.val4.i to i64
  br label %ldn_le_p.exit

sw.bb4.i:                                         ; preds = %entry
  %ptr.val5.i = load i32, ptr %add.ptr, align 1
  %conv6.i = zext i32 %ptr.val5.i to i64
  br label %ldn_le_p.exit

sw.bb7.i:                                         ; preds = %entry
  %ptr.val6.i = load i64, ptr %add.ptr, align 1
  br label %ldn_le_p.exit

do.body.i:                                        ; preds = %entry
  tail call void @g_assertion_message_expr(ptr noundef null, ptr noundef nonnull @.str.271, i32 noundef 419, ptr noundef nonnull @__func__.ldn_le_p, ptr noundef null) #13
  unreachable

ldn_le_p.exit:                                    ; preds = %sw.bb.i, %sw.bb1.i, %sw.bb4.i, %sw.bb7.i
  %retval.0.i = phi i64 [ %ptr.val6.i, %sw.bb7.i ], [ %conv6.i, %sw.bb4.i ], [ %conv3.i, %sw.bb1.i ], [ %conv.i, %sw.bb.i ]
  ret i64 %retval.0.i
}